; Function Attrs: mustprogress uwtable
define void @_ZN6casadi11GetNonzeros6createERKNS_8SparsityERKNS_2MXERKSt6vectorIxSaIxEE(ptr dead_on_unwind noalias writable sret(%"class.casadi::MX") align 8 %0, ptr noundef nonnull align 8 dereferenceable(8) %1, ptr noundef nonnull align 8 dereferenceable(8) %2, ptr noundef nonnull align 8 dereferenceable(24) %3) local_unnamed_addr #3 align 2 personality ptr @__gxx_personality_v0 {
  %5 = alloca %"class.casadi::Slice", align 8
  %6 = alloca %"struct.std::pair", align 8
  %7 = load ptr, ptr %3, align 8
  %8 = getelementptr inbounds i8, ptr %3, i64 8
  %9 = load ptr, ptr %8, align 8
  %10 = icmp eq ptr %7, %9
  br i1 %10, label %11, label %12

11:                                               ; preds = %4
  tail call void @_ZN6casadi2MXC1ERKNS_8SparsityEdb(ptr noundef nonnull align 8 dereferenceable(8) %0, ptr noundef nonnull align 8 dereferenceable(8) %1, double noundef 0.000000e+00, i1 noundef zeroext false)
  br label %32

12:                                               ; preds = %4
  %13 = tail call noundef zeroext i1 @_ZN6casadi8is_sliceERKSt6vectorIxSaIxEEb(ptr noundef nonnull align 8 dereferenceable(24) %3, i1 noundef zeroext false)
  br i1 %13, label %14, label %15

14:                                               ; preds = %12
  call void @_ZN6casadi8to_sliceERKSt6vectorIxSaIxEEb(ptr dead_on_unwind nonnull writable sret(%"class.casadi::Slice") align 8 %5, ptr noundef nonnull align 8 dereferenceable(24) %3, i1 noundef zeroext false)
  call void @_ZN6casadi11GetNonzeros6createERKNS_8SparsityERKNS_2MXERKNS_5SliceE(ptr dead_on_unwind writable sret(%"class.casadi::MX") align 8 %0, ptr noundef nonnull align 8 dereferenceable(8) %1, ptr noundef nonnull align 8 dereferenceable(8) %2, ptr noundef nonnull align 8 dereferenceable(24) %5)
  br label %32

15:                                               ; preds = %12
  %16 = tail call noundef zeroext i1 @_ZN6casadi9is_slice2ERKSt6vectorIxSaIxEE(ptr noundef nonnull align 8 dereferenceable(24) %3)
  br i1 %16, label %17, label %27

17:                                               ; preds = %15
  call void @_ZN6casadi9to_slice2ERKSt6vectorIxSaIxEE(ptr dead_on_unwind nonnull writable sret(%"struct.std::pair") align 8 %6, ptr noundef nonnull align 8 dereferenceable(24) %3)
  %18 = getelementptr inbounds i8, ptr %6, i64 24
  %19 = call noalias noundef nonnull dereferenceable(112) ptr @_Znwm(i64 noundef 112) #21, !noalias !4
  invoke void @_ZN6casadi6MXNodeC2Ev(ptr noundef nonnull align 8 dereferenceable(64) %19)
          to label %.noexc.i unwind label %23, !noalias !4

.noexc.i:                                         ; preds = %17
  store ptr getelementptr inbounds ({ [109 x ptr] }, ptr @_ZTVN6casadi11GetNonzerosE, i64 0, i32 0, i64 2), ptr %19, align 8, !noalias !4
  invoke void @_ZN6casadi6MXNode12set_sparsityERKNS_8SparsityE(ptr noundef nonnull align 8 dereferenceable(64) %19, ptr noundef nonnull align 8 dereferenceable(8) %1)
          to label %20 unwind label %21, !noalias !4

20:                                               ; preds = %.noexc.i
  invoke void @_ZN6casadi6MXNode7set_depERKNS_2MXE(ptr noundef nonnull align 8 dereferenceable(64) %19, ptr noundef nonnull align 8 dereferenceable(8) %2)
          to label %_ZN6casadi11GetNonzeros6createERKNS_8SparsityERKNS_2MXERKNS_5SliceES9_.exit unwind label %21, !noalias !4

21:                                               ; preds = %20, %.noexc.i
  %22 = landingpad { ptr, i32 }
          cleanup
  call void @_ZN6casadi6MXNodeD2Ev(ptr noundef nonnull align 8 dereferenceable(64) %19) #22, !noalias !4
  br label %.body.i

23:                                               ; preds = %17
  %24 = landingpad { ptr, i32 }
          cleanup
  br label %.body.i

common.resume:                                    ; preds = %30, %.body.i
  %common.resume.op = phi { ptr, i32 } [ %eh.lpad-body.i, %.body.i ], [ %31, %30 ]
  resume { ptr, i32 } %common.resume.op

.body.i:                                          ; preds = %23, %21
  %eh.lpad-body.i = phi { ptr, i32 } [ %24, %23 ], [ %22, %21 ]
  call void @_ZdlPv(ptr noundef nonnull %19) #23, !noalias !4
  br label %common.resume

_ZN6casadi11GetNonzeros6createERKNS_8SparsityERKNS_2MXERKNS_5SliceES9_.exit: ; preds = %20
  store ptr getelementptr inbounds ({ [109 x ptr] }, ptr @_ZTVN6casadi17GetNonzerosSlice2E, i64 0, i32 0, i64 2), ptr %19, align 8, !noalias !4
  %25 = getelementptr inbounds i8, ptr %19, i64 64
  call void @llvm.memcpy.p0.p0.i64(ptr noundef nonnull align 8 dereferenceable(24) %25, ptr noundef nonnull align 8 dereferenceable(24) %6, i64 24, i1 false), !noalias !4
  %26 = getelementptr inbounds i8, ptr %19, i64 88
  call void @llvm.memcpy.p0.p0.i64(ptr noundef nonnull align 8 dereferenceable(24) %26, ptr noundef nonnull align 8 dereferenceable(24) %18, i64 24, i1 false), !noalias !4
  call void @_ZN6casadi2MX6createEPNS_6MXNodeE(ptr dead_on_unwind writable sret(%"class.casadi::MX") align 8 %0, ptr noundef nonnull %19)
  br label %32

27:                                               ; preds = %15
  %28 = tail call noalias noundef nonnull dereferenceable(88) ptr @_Znwm(i64 noundef 88) #21
  invoke void @_ZN6casadi17GetNonzerosVectorC2ERKNS_8SparsityERKNS_2MXERKSt6vectorIxSaIxEE(ptr noundef nonnull align 8 dereferenceable(88) %28, ptr noundef nonnull align 8 dereferenceable(8) %1, ptr noundef nonnull align 8 dereferenceable(8) %2, ptr noundef nonnull align 8 dereferenceable(24) %3)
          to label %29 unwind label %30

29:                                               ; preds = %27
  tail call void @_ZN6casadi2MX6createEPNS_6MXNodeE(ptr dead_on_unwind writable sret(%"class.casadi::MX") align 8 %0, ptr noundef nonnull %28)
  br label %32

30:                                               ; preds = %27
  %31 = landingpad { ptr, i32 }
          cleanup
  tail call void @_ZdlPv(ptr noundef nonnull %28) #23
  br label %common.resume

32:                                               ; preds = %29, %_ZN6casadi11GetNonzeros6createERKNS_8SparsityERKNS_2MXERKNS_5SliceES9_.exit, %14, %11
  ret void
}